Certificate:
    Data:
        Version: 3 (0x2)
        Serial Number: 1 (0x1)
    Signature Algorithm: sha1WithRSAEncryption
        Issuer: C=US, ST=California, L=Foster City, O=etcd-ruby, CN=CA/emailAddress=ranjib@linux.com
        Validity
            Not Before: Mar 17 04:27:53 2014 GMT
            Not After : Mar 17 04:27:53 2015 GMT
        Subject: C=US, ST=California, L=Foster City, O=etcd-ruby-client, CN=localhost/emailAddress=ranjib@linux.com
        Subject Public Key Info:
            Public Key Algorithm: rsaEncryption
                Public-Key: (2048 bit)
                Modulus:
                    00:dc:79:2c:aa:a0:6d:dd:09:72:29:6e:a2:67:a5:
                    15:dd:b6:27:e2:e1:4a:ae:4c:2e:19:52:b3:31:2c:
                    2b:8e:0b:62:bf:83:62:0e:a3:41:22:4c:6a:f1:84:
                    4d:8f:18:22:13:53:56:79:44:df:9f:b8:e1:05:a4:
                    7b:50:35:14:0c:9c:7c:40:ef:c3:27:1c:84:77:7c:
                    0a:5e:ef:e7:ac:97:85:3c:ec:aa:32:5b:30:37:10:
                    7b:2b:ab:ac:96:53:79:42:47:ff:5e:22:19:bb:c3:
                    50:da:3d:75:ae:14:fa:68:f7:e6:e0:d5:a0:2d:60:
                    0e:71:0b:a9:9f:ff:13:b7:d1:0f:e6:b9:e9:12:fa:
                    fb:ff:d7:a7:33:73:15:f7:1b:37:f1:2f:d7:4a:96:
                    46:c8:30:b9:4a:a6:29:9b:c5:7c:c4:a6:e2:b7:08:
                    74:2c:8f:25:0b:a9:a5:13:4f:03:e3:ae:d6:12:56:
                    1d:b5:9b:b0:32:f4:84:f9:59:1e:10:30:a9:7a:c0:
                    f2:75:6d:44:c1:2d:9a:f2:4e:1e:59:af:f2:30:8e:
                    12:8e:da:85:00:c3:c8:28:96:1e:59:98:49:a4:93:
                    87:0f:b5:e8:0c:95:90:a8:20:3d:43:26:67:4e:9a:
                    ee:ac:5e:0a:40:53:2b:99:4c:db:9d:72:20:25:04:
                    d4:ab
                Exponent: 65537 (0x10001)
        X509v3 extensions:
            X509v3 Basic Constraints: 
                CA:FALSE
            Netscape Comment: 
                OpenSSL Generated Certificate
            X509v3 Subject Key Identifier: 
                3D:DA:77:1F:F0:A1:13:50:B4:CD:74:B3:45:90:F9:20:CB:EC:A1:79
            X509v3 Authority Key Identifier: 
                keyid:F2:33:29:0F:A7:71:E1:AE:E9:16:F3:3F:D8:C2:35:A2:0F:66:F3:4A

            X509v3 Extended Key Usage: 
                TLS Web Client Authentication
    Signature Algorithm: sha1WithRSAEncryption
         3e:a5:65:e2:2d:95:d0:1f:56:d4:07:67:37:fb:f4:e0:30:95:
         fd:a0:d0:a0:29:2d:2b:c1:33:d8:76:02:c7:17:e0:4e:88:30:
         26:4f:ec:99:b8:a6:0e:c4:e3:9f:3d:ce:fa:29:0b:58:51:a4:
         14:9f:1b:5b:ce:91:72:04:ed:f9:ac:55:6e:72:fe:81:2f:30:
         c1:3b:6f:75:9d:56:af:d6:12:66:4d:95:24:c1:b9:c7:da:98:
         3f:9f:b1:ce:22:ba:f7:16:6a:37:e2:57:d1:b7:01:3b:30:7b:
         30:60:f6:f6:10:37:ef:8e:d8:fa:13:33:dd:d1:99:b7:65:07:
         b0:e4:b9:04:2f:28:3d:b1:cf:6b:01:1b:8c:fe:ac:f3:db:6e:
         e9:86:19:de:2a:c9:eb:f4:ae:d0:93:72:14:03:4a:63:dc:8e:
         c6:76:fa:0e:4f:be:91:3b:3c:7e:44:f0:07:b1:06:4d:a6:d5:
         3b:c8:e3:4b:92:8f:43:1c:8b:e0:44:51:a0:55:1e:d9:33:23:
         77:83:6e:90:4b:aa:3b:d5:57:ed:73:bd:7b:f6:be:0c:d5:76:
         8e:ee:00:2d:ee:71:b5:f4:e0:ef:f5:2f:34:6e:25:ac:d2:2d:
         9d:50:ec:df:b9:fd:39:4b:b7:60:85:24:45:ca:0e:54:73:92:
         a7:d0:62:d8
-----BEGIN CERTIFICATE-----
MIIEEDCCAvigAwIBAgIBATANBgkqhkiG9w0BAQUFADB6MQswCQYDVQQGEwJVUzET
MBEGA1UECAwKQ2FsaWZvcm5pYTEUMBIGA1UEBwwLRm9zdGVyIENpdHkxEjAQBgNV
BAoMCWV0Y2QtcnVieTELMAkGA1UEAwwCQ0ExHzAdBgkqhkiG9w0BCQEWEHJhbmpp
YkBsaW51eC5jb20wHhcNMTQwMzE3MDQyNzUzWhcNMTUwMzE3MDQyNzUzWjCBiDEL
MAkGA1UEBhMCVVMxEzARBgNVBAgMCkNhbGlmb3JuaWExFDASBgNVBAcMC0Zvc3Rl
ciBDaXR5MRkwFwYDVQQKDBBldGNkLXJ1YnktY2xpZW50MRIwEAYDVQQDDAlsb2Nh
bGhvc3QxHzAdBgkqhkiG9w0BCQEWEHJhbmppYkBsaW51eC5jb20wggEiMA0GCSqG
SIb3DQEBAQUAA4IBDwAwggEKAoIBAQDceSyqoG3dCXIpbqJnpRXdtifi4UquTC4Z
UrMxLCuOC2K/g2IOo0EiTGrxhE2PGCITU1Z5RN+fuOEFpHtQNRQMnHxA78MnHIR3
fApe7+esl4U87KoyWzA3EHsrq6yWU3lCR/9eIhm7w1DaPXWuFPpo9+bg1aAtYA5x
C6mf/xO30Q/muekS+vv/16czcxX3GzfxL9dKlkbIMLlKpimbxXzEpuK3CHQsjyUL
qaUTTwPjrtYSVh21m7Ay9IT5WR4QMKl6wPJ1bUTBLZryTh5Zr/IwjhKO2oUAw8go
lh5ZmEmkk4cPtegMlZCoID1DJmdOmu6sXgpAUyuZTNudciAlBNSrAgMBAAGjgZEw
gY4wCQYDVR0TBAIwADAsBglghkgBhvhCAQ0EHxYdT3BlblNTTCBHZW5lcmF0ZWQg
Q2VydGlmaWNhdGUwHQYDVR0OBBYEFD3adx/woRNQtM10s0WQ+SDL7KF5MB8GA1Ud
IwQYMBaAFPIzKQ+nceGu6RbzP9jCNaIPZvNKMBMGA1UdJQQMMAoGCCsGAQUFBwMC
MA0GCSqGSIb3DQEBBQUAA4IBAQA+pWXiLZXQH1bUB2c3+/TgMJX9oNCgKS0rwTPY
dgLHF+BOiDAmT+yZuKYOxOOfPc76KQtYUaQUnxtbzpFyBO35rFVucv6BLzDBO291
nVav1hJmTZUkwbnH2pg/n7HOIrr3Fmo34lfRtwE7MHswYPb2EDfvjtj6EzPd0Zm3
ZQew5LkELyg9sc9rARuM/qzz227phhneKsnr9K7Qk3IUA0pj3I7GdvoOT76ROzx+
RPAHsQZNptU7yONLko9DHIvgRFGgVR7ZMyN3g26QS6o71Vftc7179r4M1XaO7gAt
7nG19ODv9S80biWs0i2dUOzfuf05S7dghSRFyg5Uc5Kn0GLY
-----END CERTIFICATE-----
