Certificate:
    Data:
        Version: 3 (0x2)
        Serial Number: 2 (0x2)
    Signature Algorithm: sha1WithRSAEncryption
        Issuer: C=US, ST=California, L=Foster City, O=etcd-ruby, CN=CA/emailAddress=ranjib@linux.com
        Validity
            Not Before: Mar 16 02:48:04 2014 GMT
            Not After : Mar 16 02:48:04 2015 GMT
        Subject: C=US, ST=California, L=Foster City, O=Default Company Ltd, CN=localhost/emailAddress=ranjib@linux.com
        Subject Public Key Info:
            Public Key Algorithm: rsaEncryption
                Public-Key: (2048 bit)
                Modulus:
                    00:d3:d7:3f:b2:88:6b:48:c3:1f:ae:70:cf:a5:ec:
                    71:1a:f0:3c:82:4f:29:84:d4:f9:01:d1:4e:b4:ba:
                    cf:72:88:06:55:01:c5:f6:83:d1:34:cf:3c:8b:40:
                    1c:eb:0e:36:93:d4:08:2a:b3:1b:55:42:a2:12:40:
                    b5:c0:a1:51:22:9c:95:19:22:3e:a6:52:b9:5f:d9:
                    04:45:bb:e6:95:13:61:7c:54:8e:17:07:f8:23:4c:
                    e7:dd:61:bc:71:78:5a:7e:c6:ae:1a:ec:05:b4:02:
                    96:b4:ca:16:5a:50:25:e1:9d:df:ae:41:39:ff:64:
                    d3:33:87:53:36:51:68:8f:fe:92:9d:a7:02:53:be:
                    c8:be:bd:13:c0:34:d6:d4:a9:0a:84:9d:53:4e:37:
                    42:57:70:5b:eb:5f:97:36:3c:1b:30:77:83:61:d9:
                    43:ee:9a:8f:c4:40:13:ef:b2:d2:42:d2:85:f5:ca:
                    bb:92:8e:a6:85:9d:b5:fd:7b:6e:a9:46:33:35:5c:
                    13:8d:71:9d:dd:7e:96:a2:da:98:c4:cc:33:00:aa:
                    a4:fc:41:b0:cb:80:13:57:19:d7:36:06:bc:d3:58:
                    3c:ab:31:e6:db:3d:8b:52:bb:c2:97:22:72:8e:c2:
                    b8:9e:4a:a8:22:96:6f:9f:9d:a4:f5:8f:15:7d:9f:
                    91:2b
                Exponent: 65537 (0x10001)
        X509v3 extensions:
            X509v3 Basic Constraints: 
                CA:FALSE
            Netscape Comment: 
                OpenSSL Generated Certificate
            X509v3 Subject Key Identifier: 
                B1:24:B6:2E:99:A8:14:D8:86:84:FB:0B:26:A7:64:3B:29:59:B6:D9
            X509v3 Authority Key Identifier: 
                keyid:F2:33:29:0F:A7:71:E1:AE:E9:16:F3:3F:D8:C2:35:A2:0F:66:F3:4A

    Signature Algorithm: sha1WithRSAEncryption
         0e:a1:12:ce:cb:db:64:d3:61:a2:0e:0b:93:ea:16:7b:91:6f:
         af:a6:0a:e8:bf:b5:a7:4a:60:41:fc:cc:d6:bb:8b:4c:00:f3:
         08:c6:31:41:57:7e:66:53:1e:41:93:e7:e2:62:e5:d6:9a:93:
         ca:ef:b6:d1:1e:3d:ec:e4:fe:8e:1b:ac:4d:ef:16:56:09:8c:
         d5:1a:30:c9:2f:13:1d:47:17:6e:67:26:9d:75:a1:9d:94:41:
         f9:3e:b6:de:f5:e9:76:87:dc:c7:a9:d6:37:47:52:bf:2a:59:
         48:72:56:f0:89:d5:83:9c:35:f3:37:48:02:52:4a:a0:52:92:
         fe:65:6b:7b:ce:57:0c:9b:93:56:48:86:c5:db:4f:df:dd:d4:
         ac:9f:31:39:77:7b:3a:aa:f5:d8:95:db:28:e6:1b:47:9d:18:
         c5:b2:38:88:2a:8a:5d:11:9d:aa:26:aa:8c:06:8a:20:b1:70:
         7e:2b:dd:fa:12:7b:32:64:c6:5b:54:d6:4a:aa:fb:a4:22:35:
         6b:69:9f:c6:c2:58:e7:79:6f:a6:4b:f5:25:64:55:ce:2f:69:
         52:76:1c:33:9e:97:3d:f5:f7:2c:67:29:30:55:86:65:5a:9a:
         7c:9c:79:80:f6:14:e3:8b:35:fb:7d:c9:a8:c0:86:24:07:9d:
         0d:c2:69:70
-----BEGIN CERTIFICATE-----
MIID/DCCAuSgAwIBAgIBAjANBgkqhkiG9w0BAQUFADB6MQswCQYDVQQGEwJVUzET
MBEGA1UECAwKQ2FsaWZvcm5pYTEUMBIGA1UEBwwLRm9zdGVyIENpdHkxEjAQBgNV
BAoMCWV0Y2QtcnVieTELMAkGA1UEAwwCQ0ExHzAdBgkqhkiG9w0BCQEWEHJhbmpp
YkBsaW51eC5jb20wHhcNMTQwMzE2MDI0ODA0WhcNMTUwMzE2MDI0ODA0WjCBizEL
MAkGA1UEBhMCVVMxEzARBgNVBAgMCkNhbGlmb3JuaWExFDASBgNVBAcMC0Zvc3Rl
ciBDaXR5MRwwGgYDVQQKDBNEZWZhdWx0IENvbXBhbnkgTHRkMRIwEAYDVQQDDAls
b2NhbGhvc3QxHzAdBgkqhkiG9w0BCQEWEHJhbmppYkBsaW51eC5jb20wggEiMA0G
CSqGSIb3DQEBAQUAA4IBDwAwggEKAoIBAQDT1z+yiGtIwx+ucM+l7HEa8DyCTymE
1PkB0U60us9yiAZVAcX2g9E0zzyLQBzrDjaT1AgqsxtVQqISQLXAoVEinJUZIj6m
Urlf2QRFu+aVE2F8VI4XB/gjTOfdYbxxeFp+xq4a7AW0Apa0yhZaUCXhnd+uQTn/
ZNMzh1M2UWiP/pKdpwJTvsi+vRPANNbUqQqEnVNON0JXcFvrX5c2PBswd4Nh2UPu
mo/EQBPvstJC0oX1yruSjqaFnbX9e26pRjM1XBONcZ3dfpai2pjEzDMAqqT8QbDL
gBNXGdc2BrzTWDyrMebbPYtSu8KXInKOwrieSqgilm+fnaT1jxV9n5ErAgMBAAGj
ezB5MAkGA1UdEwQCMAAwLAYJYIZIAYb4QgENBB8WHU9wZW5TU0wgR2VuZXJhdGVk
IENlcnRpZmljYXRlMB0GA1UdDgQWBBSxJLYumagU2IaE+wsmp2Q7KVm22TAfBgNV
HSMEGDAWgBTyMykPp3HhrukW8z/YwjWiD2bzSjANBgkqhkiG9w0BAQUFAAOCAQEA
DqESzsvbZNNhog4Lk+oWe5Fvr6YK6L+1p0pgQfzM1ruLTADzCMYxQVd+ZlMeQZPn
4mLl1pqTyu+20R497OT+jhusTe8WVgmM1RowyS8THUcXbmcmnXWhnZRB+T623vXp
dofcx6nWN0dSvypZSHJW8InVg5w18zdIAlJKoFKS/mVre85XDJuTVkiGxdtP393U
rJ8xOXd7Oqr12JXbKOYbR50YxbI4iCqKXRGdqiaqjAaKILFwfivd+hJ7MmTGW1TW
Sqr7pCI1a2mfxsJY53lvpkv1JWRVzi9pUnYcM56XPfX3LGcpMFWGZVqafJx5gPYU
44s1+33JqMCGJAedDcJpcA==
-----END CERTIFICATE-----
